target datalayout = "e-m:e-p270:32:32-p271:32:32-p272:64:64-i64:64-i128:128-f80:128-n8:16:32:64-S128"
target triple = "x86_64-pc-linux-gnu"

%struct._zend_executor_globals = type { %struct._zval_struct, %struct._zval_struct, [32 x ptr], ptr, ptr, %struct._zend_array, %struct._zend_array, ptr, i32, i8, %struct._zval_struct, i32, ptr, ptr, ptr, ptr, ptr, ptr, i64, ptr, ptr, i32, ptr, i32, i64, i32, i32, i32, i8, i8, %struct.zend_atomic_bool_s, %struct.zend_atomic_bool_s, ptr, i64, ptr, ptr, %struct._zend_array, %struct._zend_array, i32, i8, %struct._zval_struct, %struct._zval_struct, %struct._zend_stack, %struct._zend_stack, %struct._zend_stack, ptr, i32, i32, i64, ptr, ptr, ptr, %struct._zend_objects_store, %struct._zend_lazy_objects_store, ptr, ptr, ptr, [3 x %struct._zend_op], ptr, i8, i8, i64, i32, i32, ptr, [16 x %struct._HashTableIterator], ptr, %union._zend_function, %struct._zend_op, %struct._zend_array, i64, %struct.zend_get_gc_buffer, ptr, ptr, ptr, i64, i8, i32, ptr, ptr, i64, %struct._zend_call_stack, i64, i64, %struct._zend_strtod_state, [6 x ptr] }
%struct.zend_atomic_bool_s = type { i8 }
%struct._zval_struct = type { %union._zend_value, %union.anon, %union.anon.2 }
%union._zend_value = type { i64 }
%union.anon = type { i32 }
%union.anon.2 = type { i32 }
%struct._zend_stack = type { i32, i32, i32, ptr }
%struct._zend_objects_store = type { ptr, i32, i32, i32 }
%struct._zend_lazy_objects_store = type { %struct._zend_array }
%struct._HashTableIterator = type { ptr, i32, i32 }
%union._zend_function = type { %struct._zend_op_array }
%struct._zend_op_array = type { i8, [3 x i8], i32, ptr, ptr, ptr, i32, i32, ptr, ptr, ptr, ptr, i32, ptr, i32, i32, i32, ptr, ptr, ptr, ptr, ptr, i32, i32, ptr, ptr, ptr, i32, i32, i32, i32, ptr, ptr, [6 x ptr] }
%struct._zend_op = type { ptr, %union._znode_op, %union._znode_op, %union._znode_op, i32, i32, i8, i8, i8, i8 }
%union._znode_op = type { i32 }
%struct._zend_array = type { %struct._zend_refcounted_h, %union.anon.4, i32, %union.anon.6, i32, i32, i32, i32, i64, ptr }
%struct._zend_refcounted_h = type { i32, %union.anon.3 }
%union.anon.3 = type { i32 }
%union.anon.4 = type { i32 }
%union.anon.6 = type { ptr }
%struct.zend_get_gc_buffer = type { ptr, ptr, ptr }
%struct._zend_call_stack = type { ptr, i64 }
%struct._zend_strtod_state = type { [8 x ptr], ptr, ptr }
%struct._zend_execute_data = type { ptr, ptr, ptr, ptr, %struct._zval_struct, ptr, ptr, ptr, ptr }
%struct._spl_dllist_object = type { ptr, ptr, i32, i32, ptr, ptr, ptr, ptr, ptr, ptr, %struct._zend_object }
%struct._zend_object = type { %struct._zend_refcounted_h, i32, i32, ptr, ptr, ptr, [1 x %struct._zval_struct] }
%struct._spl_ptr_llist = type { ptr, ptr, i32 }
%struct._spl_ptr_llist_element = type { ptr, ptr, %struct._zval_struct }
%struct._zend_refcounted = type { %struct._zend_refcounted_h }
%struct.anon.0 = type { i8, i8, %union.anon.1 }
%union.anon.1 = type { i16 }
%struct._zend_reference = type { %struct._zend_refcounted_h, %struct._zval_struct, %union.zend_property_info_source_list }
%union.zend_property_info_source_list = type { ptr }

@executor_globals = external global %struct._zend_executor_globals, align 8
@.str.4 = private unnamed_addr constant [2 x i8] c"l\00", align 1
@spl_ce_OutOfRangeException = external global ptr, align 8
@.str.6 = private unnamed_addr constant [16 x i8] c"is out of range\00", align 1
@.str.7 = private unnamed_addr constant [21 x i8] c"is an invalid offset\00", align 1

; Function Attrs: alwaysinline nounwind uwtable
define internal i32 @zend_gc_addref(ptr noundef %0) #6 {
  %2 = alloca ptr, align 8
  store ptr %0, ptr %2, align 8, !tbaa !77
  br label %3

3:                                                ; preds = %1
  br label %4

4:                                                ; preds = %3
  %5 = load ptr, ptr %2, align 8, !tbaa !77
  %6 = getelementptr inbounds nuw %struct._zend_refcounted_h, ptr %5, i32 0, i32 0
  %7 = load i32, ptr %6, align 4, !tbaa !79
  %8 = add i32 %7, 1
  store i32 %8, ptr %6, align 4, !tbaa !79
  ret i32 %8
}

; Function Attrs: alwaysinline nounwind uwtable
define internal i32 @zval_addref_p(ptr noundef %0) #6 {
  %2 = alloca ptr, align 8
  store ptr %0, ptr %2, align 8, !tbaa !9
  %3 = load ptr, ptr %2, align 8, !tbaa !9
  %4 = getelementptr inbounds nuw %struct._zval_struct, ptr %3, i32 0, i32 1
  %5 = getelementptr inbounds nuw %struct.anon.0, ptr %4, i32 0, i32 1
  %6 = load i8, ptr %5, align 1, !tbaa !11
  %7 = zext i8 %6 to i32
  %8 = icmp ne i32 %7, 0
  call void @llvm.assume(i1 %8)
  %9 = load ptr, ptr %2, align 8, !tbaa !9
  %10 = getelementptr inbounds nuw %struct._zval_struct, ptr %9, i32 0, i32 0
  %11 = load ptr, ptr %10, align 8, !tbaa !11
  %12 = getelementptr inbounds nuw %struct._zend_refcounted, ptr %11, i32 0, i32 0
  %13 = call i32 @zend_gc_addref(ptr noundef %12)
  ret i32 %13
}

; Function Attrs: nounwind uwtable
define internal ptr @spl_ptr_llist_offset(ptr noundef %0, i64 noundef %1, i32 noundef %2) #0 {
  %4 = alloca ptr, align 8
  %5 = alloca i64, align 8
  %6 = alloca i32, align 4
  %7 = alloca ptr, align 8
  %8 = alloca i32, align 4
  store ptr %0, ptr %4, align 8, !tbaa !55
  store i64 %1, ptr %5, align 8, !tbaa !68
  store i32 %2, ptr %6, align 4, !tbaa !64
  call void @llvm.lifetime.start.p0(i64 8, ptr %7) #14
  call void @llvm.lifetime.start.p0(i64 4, ptr %8) #14
  store i32 0, ptr %8, align 4, !tbaa !64
  %9 = load i32, ptr %6, align 4, !tbaa !64
  %10 = icmp ne i32 %9, 0
  br i1 %10, label %11, label %15

11:                                               ; preds = %3
  %12 = load ptr, ptr %4, align 8, !tbaa !55
  %13 = getelementptr inbounds nuw %struct._spl_ptr_llist, ptr %12, i32 0, i32 1
  %14 = load ptr, ptr %13, align 8, !tbaa !57
  store ptr %14, ptr %7, align 8, !tbaa !56
  br label %19

15:                                               ; preds = %3
  %16 = load ptr, ptr %4, align 8, !tbaa !55
  %17 = getelementptr inbounds nuw %struct._spl_ptr_llist, ptr %16, i32 0, i32 0
  %18 = load ptr, ptr %17, align 8, !tbaa !65
  store ptr %18, ptr %7, align 8, !tbaa !56
  br label %19

19:                                               ; preds = %15, %11
  br label %20

20:                                               ; preds = %43, %19
  %21 = load ptr, ptr %7, align 8, !tbaa !56
  %22 = icmp ne ptr %21, null
  br i1 %22, label %23, label %28

23:                                               ; preds = %20
  %24 = load i32, ptr %8, align 4, !tbaa !64
  %25 = sext i32 %24 to i64
  %26 = load i64, ptr %5, align 8, !tbaa !68
  %27 = icmp slt i64 %25, %26
  br label %28

28:                                               ; preds = %23, %20
  %29 = phi i1 [ false, %20 ], [ %27, %23 ]
  br i1 %29, label %30, label %44

30:                                               ; preds = %28
  %31 = load i32, ptr %8, align 4, !tbaa !64
  %32 = add nsw i32 %31, 1
  store i32 %32, ptr %8, align 4, !tbaa !64
  %33 = load i32, ptr %6, align 4, !tbaa !64
  %34 = icmp ne i32 %33, 0
  br i1 %34, label %35, label %39

35:                                               ; preds = %30
  %36 = load ptr, ptr %7, align 8, !tbaa !56
  %37 = getelementptr inbounds nuw %struct._spl_ptr_llist_element, ptr %36, i32 0, i32 0
  %38 = load ptr, ptr %37, align 8, !tbaa !59
  store ptr %38, ptr %7, align 8, !tbaa !56
  br label %43

39:                                               ; preds = %30
  %40 = load ptr, ptr %7, align 8, !tbaa !56
  %41 = getelementptr inbounds nuw %struct._spl_ptr_llist_element, ptr %40, i32 0, i32 1
  %42 = load ptr, ptr %41, align 8, !tbaa !61
  store ptr %42, ptr %7, align 8, !tbaa !56
  br label %43

43:                                               ; preds = %39, %35
  br label %20

44:                                               ; preds = %28
  %45 = load ptr, ptr %7, align 8, !tbaa !56
  call void @llvm.lifetime.end.p0(i64 4, ptr %8) #14
  call void @llvm.lifetime.end.p0(i64 8, ptr %7) #14
  ret ptr %45
}

; Function Attrs: inlinehint nounwind uwtable
define internal ptr @spl_dllist_from_obj(ptr noundef %0) #4 {
  %2 = alloca ptr, align 8
  store ptr %0, ptr %2, align 8, !tbaa !54
  %3 = load ptr, ptr %2, align 8, !tbaa !54
  %4 = getelementptr inbounds i8, ptr %3, i64 -72
  ret ptr %4
}

; Function Attrs: nounwind uwtable
define hidden void @zim_SplDoublyLinkedList_offsetGet(ptr noundef %0, ptr noundef %1) #0 {
  %3 = alloca ptr, align 8
  %4 = alloca ptr, align 8
  %5 = alloca i64, align 8
  %6 = alloca ptr, align 8
  %7 = alloca ptr, align 8
  %8 = alloca i32, align 4
  %9 = alloca ptr, align 8
  %10 = alloca ptr, align 8
  %11 = alloca ptr, align 8
  %12 = alloca ptr, align 8
  %13 = alloca i32, align 4
  store ptr %0, ptr %3, align 8, !tbaa !4
  store ptr %1, ptr %4, align 8, !tbaa !9
  call void @llvm.lifetime.start.p0(i64 8, ptr %5) #14
  call void @llvm.lifetime.start.p0(i64 8, ptr %6) #14
  call void @llvm.lifetime.start.p0(i64 8, ptr %7) #14
  %14 = load ptr, ptr %3, align 8, !tbaa !4
  %15 = getelementptr inbounds nuw %struct._zend_execute_data, ptr %14, i32 0, i32 4
  %16 = getelementptr inbounds nuw %struct._zval_struct, ptr %15, i32 0, i32 2
  %17 = load i32, ptr %16, align 4, !tbaa !11
  %18 = call i32 (i32, ptr, ...) @zend_parse_parameters(i32 noundef %17, ptr noundef @.str.4, ptr noundef %5)
  %19 = icmp eq i32 %18, -1
  br i1 %19, label %20, label %26

20:                                               ; preds = %2
  br label %21

21:                                               ; preds = %20
  %22 = load ptr, ptr getelementptr inbounds nuw (%struct._zend_executor_globals, ptr @executor_globals, i32 0, i32 54), align 8, !tbaa !12
  %23 = icmp ne ptr %22, null
  call void @llvm.assume(i1 %23)
  store i32 1, ptr %8, align 4
  br label %134

24:                                               ; No predecessors!
  br label %25

25:                                               ; preds = %24
  br label %26

26:                                               ; preds = %25, %2
  %27 = load ptr, ptr %3, align 8, !tbaa !4
  %28 = getelementptr inbounds nuw %struct._zend_execute_data, ptr %27, i32 0, i32 4
  %29 = getelementptr inbounds nuw %struct._zval_struct, ptr %28, i32 0, i32 0
  %30 = load ptr, ptr %29, align 8, !tbaa !11
  %31 = call ptr @spl_dllist_from_obj(ptr noundef %30)
  store ptr %31, ptr %6, align 8, !tbaa !45
  %32 = load i64, ptr %5, align 8, !tbaa !68
  %33 = icmp slt i64 %32, 0
  br i1 %33, label %43, label %34

34:                                               ; preds = %26
  %35 = load i64, ptr %5, align 8, !tbaa !68
  %36 = load ptr, ptr %6, align 8, !tbaa !45
  %37 = getelementptr inbounds nuw %struct._spl_dllist_object, ptr %36, i32 0, i32 0
  %38 = load ptr, ptr %37, align 8, !tbaa !47
  %39 = getelementptr inbounds nuw %struct._spl_ptr_llist, ptr %38, i32 0, i32 2
  %40 = load i32, ptr %39, align 8, !tbaa !66
  %41 = sext i32 %40 to i64
  %42 = icmp sge i64 %35, %41
  br i1 %42, label %43, label %50

43:                                               ; preds = %34, %26
  %44 = load ptr, ptr @spl_ce_OutOfRangeException, align 8, !tbaa !67
  call void (ptr, i32, ptr, ...) @zend_argument_error(ptr noundef %44, i32 noundef 1, ptr noundef @.str.6)
  br label %45

45:                                               ; preds = %43
  %46 = load ptr, ptr getelementptr inbounds nuw (%struct._zend_executor_globals, ptr @executor_globals, i32 0, i32 54), align 8, !tbaa !12
  %47 = icmp ne ptr %46, null
  call void @llvm.assume(i1 %47)
  store i32 1, ptr %8, align 4
  br label %134

48:                                               ; No predecessors!
  br label %49

49:                                               ; preds = %48
  br label %50

50:                                               ; preds = %49, %34
  %51 = load ptr, ptr %6, align 8, !tbaa !45
  %52 = getelementptr inbounds nuw %struct._spl_dllist_object, ptr %51, i32 0, i32 0
  %53 = load ptr, ptr %52, align 8, !tbaa !47
  %54 = load i64, ptr %5, align 8, !tbaa !68
  %55 = load ptr, ptr %6, align 8, !tbaa !45
  %56 = getelementptr inbounds nuw %struct._spl_dllist_object, ptr %55, i32 0, i32 3
  %57 = load i32, ptr %56, align 4, !tbaa !73
  %58 = and i32 %57, 2
  %59 = call ptr @spl_ptr_llist_offset(ptr noundef %53, i64 noundef %54, i32 noundef %58)
  store ptr %59, ptr %7, align 8, !tbaa !56
  %60 = load ptr, ptr %7, align 8, !tbaa !56
  %61 = icmp eq ptr %60, null
  br i1 %61, label %62, label %69

62:                                               ; preds = %50
  %63 = load ptr, ptr @spl_ce_OutOfRangeException, align 8, !tbaa !67
  call void (ptr, i32, ptr, ...) @zend_argument_error(ptr noundef %63, i32 noundef 1, ptr noundef @.str.7)
  br label %64

64:                                               ; preds = %62
  %65 = load ptr, ptr getelementptr inbounds nuw (%struct._zend_executor_globals, ptr @executor_globals, i32 0, i32 54), align 8, !tbaa !12
  %66 = icmp ne ptr %65, null
  call void @llvm.assume(i1 %66)
  store i32 1, ptr %8, align 4
  br label %134

67:                                               ; No predecessors!
  br label %68

68:                                               ; preds = %67
  br label %69

69:                                               ; preds = %68, %50
  br label %70

70:                                               ; preds = %69
  br label %71

71:                                               ; preds = %70
  call void @llvm.lifetime.start.p0(i64 8, ptr %9) #14
  %72 = load ptr, ptr %7, align 8, !tbaa !56
  %73 = getelementptr inbounds nuw %struct._spl_ptr_llist_element, ptr %72, i32 0, i32 2
  store ptr %73, ptr %9, align 8, !tbaa !9
  %74 = load ptr, ptr %9, align 8, !tbaa !9
  %75 = getelementptr inbounds nuw %struct._zval_struct, ptr %74, i32 0, i32 1
  %76 = load i32, ptr %75, align 8, !tbaa !11
  %77 = and i32 %76, 65280
  %78 = icmp ne i32 %77, 0
  br i1 %78, label %79, label %109

79:                                               ; preds = %71
  %80 = load ptr, ptr %9, align 8, !tbaa !9
  %81 = getelementptr inbounds nuw %struct._zval_struct, ptr %80, i32 0, i32 1
  %82 = load i32, ptr %81, align 8, !tbaa !11
  %83 = and i32 %82, 255
  %84 = icmp eq i32 %83, 10
  %85 = xor i1 %84, true
  %86 = xor i1 %85, true
  %87 = zext i1 %86 to i32
  %88 = sext i32 %87 to i64
  %89 = call i64 @llvm.expect.i64(i64 %88, i64 0)
  %90 = icmp ne i64 %89, 0
  br i1 %90, label %91, label %105

91:                                               ; preds = %79
  %92 = load ptr, ptr %9, align 8, !tbaa !9
  %93 = getelementptr inbounds nuw %struct._zval_struct, ptr %92, i32 0, i32 0
  %94 = load ptr, ptr %93, align 8, !tbaa !11
  %95 = getelementptr inbounds nuw %struct._zend_reference, ptr %94, i32 0, i32 1
  store ptr %95, ptr %9, align 8, !tbaa !9
  %96 = load ptr, ptr %9, align 8, !tbaa !9
  %97 = getelementptr inbounds nuw %struct._zval_struct, ptr %96, i32 0, i32 1
  %98 = load i32, ptr %97, align 8, !tbaa !11
  %99 = and i32 %98, 65280
  %100 = icmp ne i32 %99, 0
  br i1 %100, label %101, label %104

101:                                              ; preds = %91
  %102 = load ptr, ptr %9, align 8, !tbaa !9
  %103 = call i32 @zval_addref_p(ptr noundef %102)
  br label %104

104:                                              ; preds = %101, %91
  br label %108

105:                                              ; preds = %79
  %106 = load ptr, ptr %9, align 8, !tbaa !9
  %107 = call i32 @zval_addref_p(ptr noundef %106)
  br label %108

108:                                              ; preds = %105, %104
  br label %109

109:                                              ; preds = %108, %71
  br label %110

110:                                              ; preds = %109
  call void @llvm.lifetime.start.p0(i64 8, ptr %10) #14
  %111 = load ptr, ptr %4, align 8, !tbaa !9
  store ptr %111, ptr %10, align 8, !tbaa !9
  call void @llvm.lifetime.start.p0(i64 8, ptr %11) #14
  %112 = load ptr, ptr %9, align 8, !tbaa !9
  store ptr %112, ptr %11, align 8, !tbaa !9
  call void @llvm.lifetime.start.p0(i64 8, ptr %12) #14
  %113 = load ptr, ptr %11, align 8, !tbaa !9
  %114 = getelementptr inbounds nuw %struct._zval_struct, ptr %113, i32 0, i32 0
  %115 = load ptr, ptr %114, align 8, !tbaa !11
  store ptr %115, ptr %12, align 8, !tbaa !62
  call void @llvm.lifetime.start.p0(i64 4, ptr %13) #14
  %116 = load ptr, ptr %11, align 8, !tbaa !9
  %117 = getelementptr inbounds nuw %struct._zval_struct, ptr %116, i32 0, i32 1
  %118 = load i32, ptr %117, align 8, !tbaa !11
  store i32 %118, ptr %13, align 4, !tbaa !64
  br label %119

119:                                              ; preds = %110
  %120 = load ptr, ptr %12, align 8, !tbaa !62
  %121 = load ptr, ptr %10, align 8, !tbaa !9
  %122 = getelementptr inbounds nuw %struct._zval_struct, ptr %121, i32 0, i32 0
  store ptr %120, ptr %122, align 8, !tbaa !11
  %123 = load i32, ptr %13, align 4, !tbaa !64
  %124 = load ptr, ptr %10, align 8, !tbaa !9
  %125 = getelementptr inbounds nuw %struct._zval_struct, ptr %124, i32 0, i32 1
  store i32 %123, ptr %125, align 8, !tbaa !11
  br label %126

126:                                              ; preds = %119
  br label %127

127:                                              ; preds = %126
  call void @llvm.lifetime.end.p0(i64 4, ptr %13) #14
  call void @llvm.lifetime.end.p0(i64 8, ptr %12) #14
  call void @llvm.lifetime.end.p0(i64 8, ptr %11) #14
  call void @llvm.lifetime.end.p0(i64 8, ptr %10) #14
  br label %128

128:                                              ; preds = %127
  br label %129

129:                                              ; preds = %128
  call void @llvm.lifetime.end.p0(i64 8, ptr %9) #14
  br label %130

130:                                              ; preds = %129
  br label %131

131:                                              ; preds = %130
  store i32 1, ptr %8, align 4
  br label %134

132:                                              ; No predecessors!
  br label %133

133:                                              ; preds = %132
  store i32 0, ptr %8, align 4
  br label %134

134:                                              ; preds = %133, %131, %64, %45, %21
  call void @llvm.lifetime.end.p0(i64 8, ptr %7) #14
  call void @llvm.lifetime.end.p0(i64 8, ptr %6) #14
  call void @llvm.lifetime.end.p0(i64 8, ptr %5) #14
  %135 = load i32, ptr %8, align 4
  switch i32 %135, label %137 [
    i32 0, label %136
    i32 1, label %136
  ]

136:                                              ; preds = %134, %134
  ret void

137:                                              ; preds = %134
  unreachable
}