; Function Attrs: nounwind uwtable
define hidden void @zim_SplDoublyLinkedList_offsetGet(ptr noundef readonly captures(none) %0, ptr noundef writeonly captures(none) %1) #0 {
  %3 = alloca i64, align 8
  call void @llvm.lifetime.start.p0(i64 8, ptr nonnull %3) #13
  %4 = getelementptr inbounds nuw i8, ptr %0, i64 44
  %5 = load i32, ptr %4, align 4, !tbaa !4
  %6 = call i32 (i32, ptr, ...) @zend_parse_parameters(i32 noundef %5, ptr noundef nonnull @.str.4, ptr noundef nonnull %3) #13
  %7 = icmp eq i32 %6, -1
  br i1 %7, label %8, label %11

8:                                                ; preds = %2
  %9 = load ptr, ptr getelementptr inbounds nuw (i8, ptr @executor_globals, i64 960), align 8, !tbaa !7
  %10 = icmp ne ptr %9, null
  call void @llvm.assume(i1 %10)
  br label %67

11:                                               ; preds = %2
  %12 = getelementptr inbounds nuw i8, ptr %0, i64 32
  %13 = load ptr, ptr %12, align 8, !tbaa !4
  %14 = load i64, ptr %3, align 8, !tbaa !65
  %15 = icmp slt i64 %14, 0
  br i1 %15, label %22, label %16

16:                                               ; preds = %11
  %17 = getelementptr inbounds i8, ptr %13, i64 -72
  %18 = load ptr, ptr %17, align 8, !tbaa !43
  %19 = getelementptr inbounds nuw i8, ptr %18, i64 16
  %20 = load i32, ptr %19, align 8, !tbaa !58
  %21 = sext i32 %20 to i64
  %.not = icmp slt i64 %14, %21
  br i1 %.not, label %26, label %22

22:                                               ; preds = %16, %11
  %23 = load ptr, ptr @spl_ce_OutOfRangeException, align 8, !tbaa !60
  call void (ptr, i32, ptr, ...) @zend_argument_error(ptr noundef %23, i32 noundef 1, ptr noundef nonnull @.str.6) #13
  %24 = load ptr, ptr getelementptr inbounds nuw (i8, ptr @executor_globals, i64 960), align 8, !tbaa !7
  %25 = icmp ne ptr %24, null
  call void @llvm.assume(i1 %25)
  br label %67

26:                                               ; preds = %16
  %27 = getelementptr inbounds i8, ptr %13, i64 -52
  %28 = load i32, ptr %27, align 4, !tbaa !66
  %29 = shl i32 %28, 2
  %30 = and i32 %29, 8
  %.010.in.idx.i = zext nneg i32 %30 to i64
  %.010.in.i = getelementptr inbounds nuw i8, ptr %18, i64 %.010.in.idx.i
  %.111.i = load ptr, ptr %.010.in.i, align 8, !tbaa !67
  %31 = icmp ne ptr %.111.i, null
  %32 = icmp ne i64 %14, 0
  %33 = and i1 %32, %31
  br i1 %33, label %.lr.ph.i, label %spl_ptr_llist_offset.exit

.lr.ph.i:                                         ; preds = %26
  %34 = xor i32 %30, 8
  %.2.in.idx.i = zext nneg i32 %34 to i64
  br label %35

35:                                               ; preds = %35, %.lr.ph.i
  %indvars.iv.i = phi i64 [ 0, %.lr.ph.i ], [ %indvars.iv.next.i, %35 ]
  %.113.i = phi ptr [ %.111.i, %.lr.ph.i ], [ %.1.i, %35 ]
  %indvars.iv.next.i = add nuw nsw i64 %indvars.iv.i, 1
  %.2.in.i = getelementptr inbounds nuw i8, ptr %.113.i, i64 %.2.in.idx.i
  %.1.i = load ptr, ptr %.2.in.i, align 8, !tbaa !67
  %36 = icmp ne ptr %.1.i, null
  %37 = icmp sgt i64 %14, %indvars.iv.next.i
  %38 = select i1 %36, i1 %37, i1 false
  br i1 %38, label %35, label %spl_ptr_llist_offset.exit

spl_ptr_llist_offset.exit:                        ; preds = %35, %26
  %.1.lcssa.i = phi ptr [ %.111.i, %26 ], [ %.1.i, %35 ]
  %39 = icmp eq ptr %.1.lcssa.i, null
  br i1 %39, label %40, label %44

40:                                               ; preds = %spl_ptr_llist_offset.exit
  %41 = load ptr, ptr @spl_ce_OutOfRangeException, align 8, !tbaa !60
  call void (ptr, i32, ptr, ...) @zend_argument_error(ptr noundef %41, i32 noundef 1, ptr noundef nonnull @.str.7) #13
  %42 = load ptr, ptr getelementptr inbounds nuw (i8, ptr @executor_globals, i64 960), align 8, !tbaa !7
  %43 = icmp ne ptr %42, null
  call void @llvm.assume(i1 %43)
  br label %67

44:                                               ; preds = %spl_ptr_llist_offset.exit
  %45 = getelementptr inbounds nuw i8, ptr %.1.lcssa.i, i64 16
  %46 = getelementptr inbounds nuw i8, ptr %.1.lcssa.i, i64 24
  %47 = load i32, ptr %46, align 8
  %48 = and i32 %47, 65280
  %.not22 = icmp eq i32 %48, 0
  br i1 %.not22, label %62, label %49

49:                                               ; preds = %44
  %50 = and i32 %47, 255
  %51 = icmp eq i32 %50, 10
  br i1 %51, label %52, label %.sink.split, !prof !61

52:                                               ; preds = %49
  %53 = load ptr, ptr %45, align 8, !tbaa !4
  %54 = getelementptr inbounds nuw i8, ptr %53, i64 8
  %55 = getelementptr inbounds nuw i8, ptr %53, i64 16
  %56 = load i32, ptr %55, align 8
  %57 = and i32 %56, 65280
  %.not23 = icmp eq i32 %57, 0
  br i1 %.not23, label %62, label %.sink.split

.sink.split:                                      ; preds = %49, %52
  %.sink28 = phi i32 [ %56, %52 ], [ %47, %49 ]
  %.sink.in = phi ptr [ %54, %52 ], [ %45, %49 ]
  %58 = and i32 %.sink28, 65280
  %59 = icmp ne i32 %58, 0
  call void @llvm.assume(i1 %59)
  %.sink = load ptr, ptr %.sink.in, align 8, !tbaa !4
  %60 = load i32, ptr %.sink, align 4, !tbaa !56
  %61 = add i32 %60, 1
  store i32 %61, ptr %.sink, align 4, !tbaa !56
  br label %62

62:                                               ; preds = %.sink.split, %44, %52
  %.0 = phi ptr [ %54, %52 ], [ %45, %44 ], [ %.sink.in, %.sink.split ]
  %63 = load ptr, ptr %.0, align 8, !tbaa !4
  %64 = getelementptr inbounds nuw i8, ptr %.0, i64 8
  %65 = load i32, ptr %64, align 8, !tbaa !4
  store ptr %63, ptr %1, align 8, !tbaa !4
  %66 = getelementptr inbounds nuw i8, ptr %1, i64 8
  store i32 %65, ptr %66, align 8, !tbaa !4
  br label %67

67:                                               ; preds = %62, %40, %22, %8
  call void @llvm.lifetime.end.p0(i64 8, ptr nonnull %3) #13
  ret void
}